; Function Attrs: mustprogress uwtable
define noundef range(i32 -3, 65) i32 @_ZN32pxrInternal_v0_24__pxrReserved__41UsdProcImagingGenerativeProceduralAdapter21ProcessPropertyChangeERKNS_7UsdPrimERKNS_7SdfPathERKNS_7TfTokenE(ptr nocapture nonnull readnone align 8 %0, ptr nocapture nonnull readnone align 8 %1, ptr nocapture nonnull readnone align 4 %2, ptr noundef nonnull align 8 dereferenceable(8) %3) unnamed_addr #0 align 2 personality ptr @__gxx_personality_v0 {
  %5 = load atomic i64, ptr @_ZN32pxrInternal_v0_24__pxrReserved__13UsdProcTokensE seq_cst, align 8
  %6 = inttoptr i64 %5 to ptr
  %.not.i.i = icmp eq i64 %5, 0
  br i1 %.not.i.i, label %7, label %_ZNK32pxrInternal_v0_24__pxrReserved__12TfStaticDataINS_17UsdProcTokensTypeENS_27Tf_StaticDataDefaultFactoryIS1_EEEptEv.exit

7:                                                ; preds = %4
  %8 = tail call noundef ptr @_ZNK32pxrInternal_v0_24__pxrReserved__12TfStaticDataINS_17UsdProcTokensTypeENS_27Tf_StaticDataDefaultFactoryIS1_EEE16_TryToCreateDataEv(ptr noundef nonnull align 8 dereferenceable(8) @_ZN32pxrInternal_v0_24__pxrReserved__13UsdProcTokensE)
  br label %_ZNK32pxrInternal_v0_24__pxrReserved__12TfStaticDataINS_17UsdProcTokensTypeENS_27Tf_StaticDataDefaultFactoryIS1_EEEptEv.exit

_ZNK32pxrInternal_v0_24__pxrReserved__12TfStaticDataINS_17UsdProcTokensTypeENS_27Tf_StaticDataDefaultFactoryIS1_EEEptEv.exit: ; preds = %4, %7
  %9 = phi ptr [ %8, %7 ], [ %6, %4 ]
  %10 = load ptr, ptr %3, align 8
  %11 = ptrtoint ptr %10 to i64
  %12 = and i64 %11, -8
  %13 = inttoptr i64 %12 to ptr
  %14 = load ptr, ptr %9, align 8
  %15 = ptrtoint ptr %14 to i64
  %16 = and i64 %15, -8
  %17 = inttoptr i64 %16 to ptr
  %18 = icmp eq ptr %13, %17
  br i1 %18, label %21, label %19

19:                                               ; preds = %_ZNK32pxrInternal_v0_24__pxrReserved__12TfStaticDataINS_17UsdProcTokensTypeENS_27Tf_StaticDataDefaultFactoryIS1_EEEptEv.exit
  %20 = tail call noundef zeroext i1 @_ZN32pxrInternal_v0_24__pxrReserved__18UsdGeomPrimvarsAPI22CanContainPropertyNameERKNS_7TfTokenE(ptr noundef nonnull align 8 dereferenceable(8) %3)
  %spec.select = select i1 %20, i32 64, i32 0
  br label %21

21:                                               ; preds = %_ZNK32pxrInternal_v0_24__pxrReserved__12TfStaticDataINS_17UsdProcTokensTypeENS_27Tf_StaticDataDefaultFactoryIS1_EEEptEv.exit, %19
  %.04 = phi i32 [ %spec.select, %19 ], [ -3, %_ZNK32pxrInternal_v0_24__pxrReserved__12TfStaticDataINS_17UsdProcTokensTypeENS_27Tf_StaticDataDefaultFactoryIS1_EEEptEv.exit ]
  ret i32 %.04
}